; Function Attrs: nounwind uwtable
define void @GC_register_disclaim_proc(i32 noundef %0, ptr noundef %1, i32 noundef %2) local_unnamed_addr #1 {
  %.b2 = load i1, ptr @GC_need_to_lock, align 4
  br i1 %.b2, label %4, label %GC_lock.exit

4:                                                ; preds = %3
  %5 = tail call i32 @pthread_mutex_trylock(ptr noundef nonnull @GC_allocate_ml) #41
  %.not = icmp eq i32 %5, 0
  br i1 %.not, label %GC_lock.exit, label %6

6:                                                ; preds = %4
  %7 = load i32, ptr @GC_nprocs, align 4
  %8 = icmp eq i32 %7, 1
  br i1 %8, label %GC_generic_lock.exit.sink.split.i, label %9

9:                                                ; preds = %6
  %10 = load atomic volatile i8, ptr @GC_collecting monotonic, align 1
  %.not.i = icmp eq i8 %10, 0
  br i1 %.not.i, label %11, label %GC_generic_lock.exit.sink.split.i

11:                                               ; preds = %9
  %12 = tail call i32 @pthread_mutex_trylock(ptr noundef nonnull @GC_allocate_ml) #41
  %13 = icmp eq i32 %12, 0
  br i1 %13, label %GC_lock.exit, label %.preheader.i.i

.preheader.i.i:                                   ; preds = %11, %17
  %.079.i.i = phi i32 [ %18, %17 ], [ 1, %11 ]
  fence syncscope("singlethread") seq_cst
  %14 = tail call i32 @pthread_mutex_trylock(ptr noundef nonnull @GC_allocate_ml) #41
  switch i32 %14, label %15 [
    i32 0, label %GC_lock.exit
    i32 16, label %17
  ]

15:                                               ; preds = %.preheader.i.i
  %16 = load ptr, ptr @GC_on_abort, align 8
  tail call void %16(ptr noundef nonnull @.str.340) #41
  tail call void @abort() #47
  unreachable

17:                                               ; preds = %.preheader.i.i
  %18 = shl nuw nsw i32 %.079.i.i, 1
  %19 = icmp samesign ult i32 %.079.i.i, 65
  br i1 %19, label %.preheader.i.i, label %GC_generic_lock.exit.sink.split.i, !llvm.loop !4

GC_generic_lock.exit.sink.split.i:                ; preds = %17, %9, %6
  %20 = tail call i32 @pthread_mutex_lock(ptr noundef nonnull @GC_allocate_ml) #41
  br label %GC_lock.exit

GC_lock.exit:                                     ; preds = %.preheader.i.i, %GC_generic_lock.exit.sink.split.i, %11, %3, %4
  %21 = load i32, ptr @GC_find_leak, align 4
  %.not.i3 = icmp eq i32 %21, 0
  br i1 %.not.i3, label %22, label %GC_register_disclaim_proc_inner.exit

22:                                               ; preds = %GC_lock.exit
  %23 = zext i32 %0 to i64
  %24 = getelementptr inbounds nuw [24 x %struct.obj_kind], ptr @GC_obj_kinds, i64 0, i64 %23
  %25 = getelementptr inbounds nuw i8, ptr %24, i64 40
  store ptr %1, ptr %25, align 8
  %26 = getelementptr inbounds nuw i8, ptr %24, i64 32
  store i32 %2, ptr %26, align 16
  br label %GC_register_disclaim_proc_inner.exit

GC_register_disclaim_proc_inner.exit:             ; preds = %GC_lock.exit, %22
  %.b = load i1, ptr @GC_need_to_lock, align 4
  br i1 %.b, label %27, label %29

27:                                               ; preds = %GC_register_disclaim_proc_inner.exit
  %28 = tail call i32 @pthread_mutex_unlock(ptr noundef nonnull @GC_allocate_ml) #41
  br label %29

29:                                               ; preds = %GC_register_disclaim_proc_inner.exit, %27
  ret void
}